target datalayout = "e-m:e-p270:32:32-p271:32:32-p272:64:64-i64:64-i128:128-f80:128-n8:16:32:64-S128"
target triple = "x86_64-pc-linux-gnu"

%"struct.__cxxabiv1::__dynamic_cast_info" = type { ptr, ptr, ptr, i64, ptr, ptr, i32, i32, i32, i32, i32, i32, i32, i8, i8, i8, i8, ptr }
%"class.std::type_info" = type { ptr, ptr }

@_ZTIN10__cxxabiv116__shim_type_infoE = dso_local constant { ptr, ptr, ptr } { ptr getelementptr inbounds (ptr, ptr @_ZTVN10__cxxabiv120__si_class_type_infoE, i64 2), ptr @_ZTSN10__cxxabiv116__shim_type_infoE, ptr @_ZTISt9type_info }, align 8
@_ZTIN10__cxxabiv117__class_type_infoE = dso_local constant { ptr, ptr, ptr } { ptr getelementptr inbounds (ptr, ptr @_ZTVN10__cxxabiv120__si_class_type_infoE, i64 2), ptr @_ZTSN10__cxxabiv117__class_type_infoE, ptr @_ZTIN10__cxxabiv116__shim_type_infoE }, align 8
@.str = private unnamed_addr constant [36 x i8] c"catching a class without an object?\00", align 1
@.str.1 = private unnamed_addr constant [10 x i8] c"%s:%d: %s\00", align 1
@.str.2 = private unnamed_addr constant [124 x i8] c"generated/home/dtcxzyw/WorkSpace/Projects/compilers/llvm-opt-benchmark/llvm/llvm-project/libcxxabi/src/private_typeinfo.cpp\00", align 1

; Function Attrs: alwaysinline mustprogress nounwind uwtable
define linkonce_odr hidden noundef ptr @_ZNSt27__type_info_implementations18__string_impl_base21__type_name_to_stringB8ne210000EPKc(ptr noundef %0) #10 comdat align 2 {
  %2 = alloca ptr, align 8
  store ptr %0, ptr %2, align 8, !tbaa !38
  %3 = load ptr, ptr %2, align 8, !tbaa !38
  ret ptr %3
}

; Function Attrs: alwaysinline mustprogress nounwind uwtable
define linkonce_odr hidden noundef zeroext i1 @_ZNSt27__type_info_implementations13__unique_impl4__eqB8ne210000EPKcS2_(ptr noundef %0, ptr noundef %1) #10 comdat align 2 {
  %3 = alloca ptr, align 8
  %4 = alloca ptr, align 8
  store ptr %0, ptr %3, align 8, !tbaa !38
  store ptr %1, ptr %4, align 8, !tbaa !38
  %5 = load ptr, ptr %3, align 8, !tbaa !38
  %6 = load ptr, ptr %4, align 8, !tbaa !38
  %7 = icmp eq ptr %5, %6
  ret i1 %7
}

; Function Attrs: mustprogress nounwind uwtable
define linkonce_odr hidden noundef ptr @_ZNKSt9type_info4nameB8ne210000Ev(ptr noundef nonnull align 8 dereferenceable(16) %0) #1 comdat align 2 {
  %2 = alloca ptr, align 8
  store ptr %0, ptr %2, align 8, !tbaa !31
  %3 = load ptr, ptr %2, align 8
  %4 = getelementptr inbounds nuw %"class.std::type_info", ptr %3, i32 0, i32 1
  %5 = load ptr, ptr %4, align 8, !tbaa !81
  %6 = call noundef ptr @_ZNSt27__type_info_implementations18__string_impl_base21__type_name_to_stringB8ne210000EPKc(ptr noundef %5) #11
  ret ptr %6
}

; Function Attrs: mustprogress nounwind uwtable
define linkonce_odr hidden noundef zeroext i1 @_ZNKSt9type_infoeqB8ne210000ERKS_(ptr noundef nonnull align 8 dereferenceable(16) %0, ptr noundef nonnull align 8 dereferenceable(16) %1) #1 comdat align 2 {
  %3 = alloca ptr, align 8
  %4 = alloca ptr, align 8
  store ptr %0, ptr %3, align 8, !tbaa !31
  store ptr %1, ptr %4, align 8, !tbaa !31
  %5 = load ptr, ptr %3, align 8
  %6 = getelementptr inbounds nuw %"class.std::type_info", ptr %5, i32 0, i32 1
  %7 = load ptr, ptr %6, align 8, !tbaa !81
  %8 = load ptr, ptr %4, align 8, !tbaa !31
  %9 = getelementptr inbounds nuw %"class.std::type_info", ptr %8, i32 0, i32 1
  %10 = load ptr, ptr %9, align 8, !tbaa !81
  %11 = call noundef zeroext i1 @_ZNSt27__type_info_implementations13__unique_impl4__eqB8ne210000EPKcS2_(ptr noundef %7, ptr noundef %10) #11
  ret i1 %11
}

; Function Attrs: inlinehint mustprogress nounwind uwtable
define internal noundef zeroext i1 @_ZL8is_equalPKSt9type_infoS1_b(ptr noundef %0, ptr noundef %1, i1 noundef zeroext %2) #5 {
  %4 = alloca i1, align 1
  %5 = alloca ptr, align 8
  %6 = alloca ptr, align 8
  %7 = alloca i8, align 1
  store ptr %0, ptr %5, align 8, !tbaa !31
  store ptr %1, ptr %6, align 8, !tbaa !31
  %8 = zext i1 %2 to i8
  store i8 %8, ptr %7, align 1, !tbaa !33
  %9 = load i8, ptr %7, align 1, !tbaa !33, !range !35, !noundef !36
  %10 = trunc i8 %9 to i1
  br i1 %10, label %15, label %11

11:                                               ; preds = %3
  %12 = load ptr, ptr %5, align 8, !tbaa !31
  %13 = load ptr, ptr %6, align 8, !tbaa !31
  %14 = call noundef zeroext i1 @_ZNKSt9type_infoeqB8ne210000ERKS_(ptr noundef nonnull align 8 dereferenceable(16) %12, ptr noundef nonnull align 8 dereferenceable(16) %13) #11
  store i1 %14, ptr %4, align 1
  br label %28

15:                                               ; preds = %3
  %16 = load ptr, ptr %5, align 8, !tbaa !31
  %17 = load ptr, ptr %6, align 8, !tbaa !31
  %18 = icmp eq ptr %16, %17
  br i1 %18, label %26, label %19

19:                                               ; preds = %15
  %20 = load ptr, ptr %5, align 8, !tbaa !31
  %21 = call noundef ptr @_ZNKSt9type_info4nameB8ne210000Ev(ptr noundef nonnull align 8 dereferenceable(16) %20) #11
  %22 = load ptr, ptr %6, align 8, !tbaa !31
  %23 = call noundef ptr @_ZNKSt9type_info4nameB8ne210000Ev(ptr noundef nonnull align 8 dereferenceable(16) %22) #11
  %24 = call i32 @strcmp(ptr noundef %21, ptr noundef %23) #14
  %25 = icmp eq i32 %24, 0
  br label %26

26:                                               ; preds = %19, %15
  %27 = phi i1 [ true, %15 ], [ %25, %19 ]
  store i1 %27, ptr %4, align 1
  br label %28

28:                                               ; preds = %26, %11
  %29 = load i1, ptr %4, align 1
  ret i1 %29
}

; Function Attrs: mustprogress uwtable
define hidden noundef zeroext i1 @_ZNK10__cxxabiv117__class_type_info9can_catchEPKNS_16__shim_type_infoERPv(ptr noundef nonnull align 8 dereferenceable(16) %0, ptr noundef %1, ptr noundef nonnull align 8 dereferenceable(8) %2) unnamed_addr #4 align 2 {
  %4 = alloca i1, align 1
  %5 = alloca ptr, align 8
  %6 = alloca ptr, align 8
  %7 = alloca ptr, align 8
  %8 = alloca ptr, align 8
  %9 = alloca i32, align 4
  %10 = alloca ptr, align 8
  %11 = alloca %"struct.__cxxabiv1::__dynamic_cast_info", align 8
  store ptr %0, ptr %5, align 8, !tbaa !17
  store ptr %1, ptr %6, align 8, !tbaa !4
  store ptr %2, ptr %7, align 8, !tbaa !29
  %12 = load ptr, ptr %5, align 8
  %13 = load ptr, ptr %6, align 8, !tbaa !4
  %14 = call noundef zeroext i1 @_ZL8is_equalPKSt9type_infoS1_b(ptr noundef %12, ptr noundef %13, i1 noundef zeroext false)
  br i1 %14, label %15, label %16

15:                                               ; preds = %3
  store i1 true, ptr %4, align 1
  br label %73

16:                                               ; preds = %3
  call void @llvm.lifetime.start.p0(i64 8, ptr %8) #11
  %17 = load ptr, ptr %6, align 8, !tbaa !4
  %18 = icmp eq ptr %17, null
  br i1 %18, label %21, label %19

19:                                               ; preds = %16
  %20 = call ptr @__dynamic_cast(ptr %17, ptr @_ZTIN10__cxxabiv116__shim_type_infoE, ptr @_ZTIN10__cxxabiv117__class_type_infoE, i64 0) #11
  br label %22

21:                                               ; preds = %16
  br label %22

22:                                               ; preds = %21, %19
  %23 = phi ptr [ %20, %19 ], [ null, %21 ]
  store ptr %23, ptr %8, align 8, !tbaa !17
  %24 = load ptr, ptr %8, align 8, !tbaa !17
  %25 = icmp eq ptr %24, null
  br i1 %25, label %26, label %27

26:                                               ; preds = %22
  store i1 false, ptr %4, align 1
  store i32 1, ptr %9, align 4
  br label %72

27:                                               ; preds = %22
  br label %28

28:                                               ; preds = %27
  %29 = load ptr, ptr %7, align 8, !tbaa !29
  %30 = load ptr, ptr %29, align 8, !tbaa !37
  %31 = icmp ne ptr %30, null
  br i1 %31, label %34, label %32

32:                                               ; preds = %28
  call void @llvm.lifetime.start.p0(i64 8, ptr %10) #11
  store ptr @.str, ptr %10, align 8, !tbaa !38
  %33 = load ptr, ptr %10, align 8, !tbaa !38
  call void (ptr, ...) @__abort_message(ptr noundef @.str.1, ptr noundef @.str.2, i32 noundef 487, ptr noundef %33) #15
  unreachable

34:                                               ; preds = %28
  br label %35

35:                                               ; preds = %34
  br label %36

36:                                               ; preds = %35
  call void @llvm.lifetime.start.p0(i64 88, ptr %11) #11
  %37 = getelementptr inbounds nuw %"struct.__cxxabiv1::__dynamic_cast_info", ptr %11, i32 0, i32 0
  %38 = load ptr, ptr %8, align 8, !tbaa !17
  store ptr %38, ptr %37, align 8, !tbaa !40
  %39 = getelementptr inbounds nuw %"struct.__cxxabiv1::__dynamic_cast_info", ptr %11, i32 0, i32 1
  store ptr null, ptr %39, align 8, !tbaa !44
  %40 = getelementptr inbounds nuw %"struct.__cxxabiv1::__dynamic_cast_info", ptr %11, i32 0, i32 2
  store ptr %12, ptr %40, align 8, !tbaa !45
  %41 = getelementptr inbounds nuw %"struct.__cxxabiv1::__dynamic_cast_info", ptr %11, i32 0, i32 3
  store i64 -1, ptr %41, align 8, !tbaa !46
  %42 = getelementptr inbounds nuw %"struct.__cxxabiv1::__dynamic_cast_info", ptr %11, i32 0, i32 4
  store ptr null, ptr %42, align 8, !tbaa !47
  %43 = getelementptr inbounds nuw %"struct.__cxxabiv1::__dynamic_cast_info", ptr %11, i32 0, i32 5
  store ptr null, ptr %43, align 8, !tbaa !48
  %44 = getelementptr inbounds nuw %"struct.__cxxabiv1::__dynamic_cast_info", ptr %11, i32 0, i32 6
  store i32 0, ptr %44, align 8, !tbaa !49
  %45 = getelementptr inbounds nuw %"struct.__cxxabiv1::__dynamic_cast_info", ptr %11, i32 0, i32 7
  store i32 0, ptr %45, align 4, !tbaa !50
  %46 = getelementptr inbounds nuw %"struct.__cxxabiv1::__dynamic_cast_info", ptr %11, i32 0, i32 8
  store i32 0, ptr %46, align 8, !tbaa !51
  %47 = getelementptr inbounds nuw %"struct.__cxxabiv1::__dynamic_cast_info", ptr %11, i32 0, i32 9
  store i32 0, ptr %47, align 4, !tbaa !52
  %48 = getelementptr inbounds nuw %"struct.__cxxabiv1::__dynamic_cast_info", ptr %11, i32 0, i32 10
  store i32 0, ptr %48, align 8, !tbaa !53
  %49 = getelementptr inbounds nuw %"struct.__cxxabiv1::__dynamic_cast_info", ptr %11, i32 0, i32 11
  store i32 0, ptr %49, align 4, !tbaa !54
  %50 = getelementptr inbounds nuw %"struct.__cxxabiv1::__dynamic_cast_info", ptr %11, i32 0, i32 12
  store i32 0, ptr %50, align 8, !tbaa !55
  %51 = getelementptr inbounds nuw %"struct.__cxxabiv1::__dynamic_cast_info", ptr %11, i32 0, i32 13
  store i8 0, ptr %51, align 4, !tbaa !56
  %52 = getelementptr inbounds nuw %"struct.__cxxabiv1::__dynamic_cast_info", ptr %11, i32 0, i32 14
  store i8 0, ptr %52, align 1, !tbaa !57
  %53 = getelementptr inbounds nuw %"struct.__cxxabiv1::__dynamic_cast_info", ptr %11, i32 0, i32 15
  store i8 0, ptr %53, align 2, !tbaa !58
  %54 = getelementptr inbounds nuw %"struct.__cxxabiv1::__dynamic_cast_info", ptr %11, i32 0, i32 16
  store i8 1, ptr %54, align 1, !tbaa !59
  %55 = getelementptr inbounds nuw %"struct.__cxxabiv1::__dynamic_cast_info", ptr %11, i32 0, i32 17
  store ptr null, ptr %55, align 8, !tbaa !60
  %56 = getelementptr inbounds nuw %"struct.__cxxabiv1::__dynamic_cast_info", ptr %11, i32 0, i32 12
  store i32 1, ptr %56, align 8, !tbaa !55
  %57 = load ptr, ptr %8, align 8, !tbaa !17
  %58 = load ptr, ptr %7, align 8, !tbaa !29
  %59 = load ptr, ptr %58, align 8, !tbaa !37
  %60 = load ptr, ptr %57, align 8, !tbaa !61
  %61 = getelementptr inbounds ptr, ptr %60, i64 7
  %62 = load ptr, ptr %61, align 8
  call void %62(ptr noundef nonnull align 8 dereferenceable(16) %57, ptr noundef %11, ptr noundef %59, i32 noundef 1)
  %63 = getelementptr inbounds nuw %"struct.__cxxabiv1::__dynamic_cast_info", ptr %11, i32 0, i32 6
  %64 = load i32, ptr %63, align 8, !tbaa !49
  %65 = icmp eq i32 %64, 1
  br i1 %65, label %66, label %70

66:                                               ; preds = %36
  %67 = getelementptr inbounds nuw %"struct.__cxxabiv1::__dynamic_cast_info", ptr %11, i32 0, i32 4
  %68 = load ptr, ptr %67, align 8, !tbaa !47
  %69 = load ptr, ptr %7, align 8, !tbaa !29
  store ptr %68, ptr %69, align 8, !tbaa !37
  store i1 true, ptr %4, align 1
  store i32 1, ptr %9, align 4
  br label %71

70:                                               ; preds = %36
  store i1 false, ptr %4, align 1
  store i32 1, ptr %9, align 4
  br label %71

71:                                               ; preds = %70, %66
  call void @llvm.lifetime.end.p0(i64 88, ptr %11) #11
  br label %72

72:                                               ; preds = %71, %26
  call void @llvm.lifetime.end.p0(i64 8, ptr %8) #11
  br label %73

73:                                               ; preds = %72, %15
  %74 = load i1, ptr %4, align 1
  ret i1 %74
}