; Function Attrs: mustprogress uwtable
define hidden noundef zeroext i1 @_ZNK10__cxxabiv117__class_type_info9can_catchEPKNS_16__shim_type_infoERPv(ptr noundef nonnull align 8 dereferenceable(16) %0, ptr noundef %1, ptr noundef nonnull align 8 captures(none) dereferenceable(8) %2) unnamed_addr #7 align 2 {
  %4 = alloca %"struct.__cxxabiv1::__dynamic_cast_info", align 8
  %5 = getelementptr inbounds nuw i8, ptr %0, i64 8
  %6 = load ptr, ptr %5, align 8, !tbaa !4
  %7 = getelementptr inbounds nuw i8, ptr %1, i64 8
  %8 = load ptr, ptr %7, align 8, !tbaa !4
  %9 = icmp eq ptr %6, %8
  br i1 %9, label %33, label %10

10:                                               ; preds = %3
  %11 = tail call ptr @__dynamic_cast(ptr nonnull %1, ptr nonnull @_ZTIN10__cxxabiv116__shim_type_infoE, ptr nonnull @_ZTIN10__cxxabiv117__class_type_infoE, i64 0) #18
  %12 = icmp eq ptr %11, null
  br i1 %12, label %33, label %13

13:                                               ; preds = %10
  %14 = load ptr, ptr %2, align 8, !tbaa !10
  %.not = icmp eq ptr %14, null
  br i1 %.not, label %15, label %16

15:                                               ; preds = %13
  tail call void (ptr, ...) @__abort_message(ptr noundef nonnull @.str.1, ptr noundef nonnull @.str.2, i32 noundef 487, ptr noundef nonnull @.str) #21
  unreachable

16:                                               ; preds = %13
  call void @llvm.lifetime.start.p0(i64 88, ptr nonnull %4) #18
  store ptr %11, ptr %4, align 8, !tbaa !11
  %17 = getelementptr inbounds nuw i8, ptr %4, i64 8
  store ptr null, ptr %17, align 8, !tbaa !17
  %18 = getelementptr inbounds nuw i8, ptr %4, i64 16
  store ptr %0, ptr %18, align 8, !tbaa !18
  %19 = getelementptr inbounds nuw i8, ptr %4, i64 24
  store i64 -1, ptr %19, align 8, !tbaa !19
  %20 = getelementptr inbounds nuw i8, ptr %4, i64 32
  %21 = getelementptr inbounds nuw i8, ptr %4, i64 48
  %22 = getelementptr inbounds nuw i8, ptr %4, i64 72
  %23 = getelementptr inbounds nuw i8, ptr %4, i64 79
  call void @llvm.memset.p0.i64(ptr noundef nonnull align 8 dereferenceable(47) %20, i8 0, i64 47, i1 false)
  store i8 1, ptr %23, align 1, !tbaa !20
  %24 = getelementptr inbounds nuw i8, ptr %4, i64 80
  store ptr null, ptr %24, align 8, !tbaa !21
  store i32 1, ptr %22, align 8, !tbaa !22
  %25 = load ptr, ptr %11, align 8, !tbaa !23
  %26 = getelementptr inbounds nuw i8, ptr %25, i64 56
  %27 = load ptr, ptr %26, align 8
  call void %27(ptr noundef nonnull align 8 dereferenceable(16) %11, ptr noundef nonnull %4, ptr noundef nonnull %14, i32 noundef 1)
  %28 = load i32, ptr %21, align 8, !tbaa !25
  %29 = icmp eq i32 %28, 1
  br i1 %29, label %30, label %32

30:                                               ; preds = %16
  %31 = load ptr, ptr %20, align 8, !tbaa !26
  store ptr %31, ptr %2, align 8, !tbaa !10
  br label %32

32:                                               ; preds = %16, %30
  call void @llvm.lifetime.end.p0(i64 88, ptr nonnull %4) #18
  br label %33

33:                                               ; preds = %32, %10, %3
  %.0 = phi i1 [ true, %3 ], [ %29, %32 ], [ false, %10 ]
  ret i1 %.0
}